; ModuleID = '21/48.c'
source_filename = "21/48.c"
target datalayout = "e-m:e-p270:32:32-p271:32:32-p272:64:64-i64:64-f80:128-n8:16:32:64-S128"
target triple = "x86_64-pc-linux-gnu"

@.str = private unnamed_addr constant [3 x i8] c"%d\00", align 1
@.str.1 = private unnamed_addr constant [6 x i8] c"%d,%d\00", align 1

; Function Attrs: noinline nounwind uwtable
define dso_local float @absd(float %0) #0 {
  %2 = alloca float, align 4
  store float %0, float* %2, align 4
  %3 = load float, float* %2, align 4
  %4 = fcmp olt float %3, 0.000000e+00
  br i1 %4, label %5, label %8

5:                                                ; preds = %1
  %6 = load float, float* %2, align 4
  %7 = fneg float %6
  store float %7, float* %2, align 4
  br label %8

8:                                                ; preds = %5, %1
  %9 = load float, float* %2, align 4
  ret float %9
}

; Function Attrs: noinline nounwind uwtable
define dso_local void @main() #0 {
  %1 = alloca float, align 4
  %2 = alloca float, align 4
  %3 = alloca float, align 4
  %4 = alloca i32, align 4
  %5 = alloca i32, align 4
  %6 = alloca i32, align 4
  %7 = alloca i32, align 4
  %8 = alloca [300 x i32], align 16
  %9 = bitcast [300 x i32]* %8 to i8*
  call void @llvm.memset.p0i8.i64(i8* align 16 %9, i8 0, i64 1200, i1 false)
  %10 = call i32 (i8*, ...) @__isoc99_scanf(i8* getelementptr inbounds ([3 x i8], [3 x i8]* @.str, i64 0, i64 0), i32* %4)
  store float 0.000000e+00, float* %3, align 4
  store i32 0, i32* %7, align 4
  br label %11

11:                                               ; preds = %20, %0
  %12 = load i32, i32* %7, align 4
  %13 = load i32, i32* %4, align 4
  %14 = icmp slt i32 %12, %13
  br i1 %14, label %15, label %23

15:                                               ; preds = %11
  %16 = load i32, i32* %7, align 4
  %17 = sext i32 %16 to i64
  %18 = getelementptr inbounds [300 x i32], [300 x i32]* %8, i64 0, i64 %17
  %19 = call i32 (i8*, ...) @__isoc99_scanf(i8* getelementptr inbounds ([3 x i8], [3 x i8]* @.str, i64 0, i64 0), i32* %18)
  br label %20

20:                                               ; preds = %15
  %21 = load i32, i32* %7, align 4
  %22 = add nsw i32 %21, 1
  store i32 %22, i32* %7, align 4
  br label %11

23:                                               ; preds = %11
  store i32 0, i32* %7, align 4
  br label %24

24:                                               ; preds = %36, %23
  %25 = load i32, i32* %7, align 4
  %26 = load i32, i32* %4, align 4
  %27 = icmp slt i32 %25, %26
  br i1 %27, label %28, label %39

28:                                               ; preds = %24
  %29 = load float, float* %3, align 4
  %30 = load i32, i32* %7, align 4
  %31 = sext i32 %30 to i64
  %32 = getelementptr inbounds [300 x i32], [300 x i32]* %8, i64 0, i64 %31
  %33 = load i32, i32* %32, align 4
  %34 = sitofp i32 %33 to float
  %35 = fadd float %29, %34
  store float %35, float* %3, align 4
  br label %36

36:                                               ; preds = %28
  %37 = load i32, i32* %7, align 4
  %38 = add nsw i32 %37, 1
  store i32 %38, i32* %7, align 4
  br label %24

39:                                               ; preds = %24
  %40 = load float, float* %3, align 4
  %41 = load i32, i32* %4, align 4
  %42 = sitofp i32 %41 to float
  %43 = fdiv float %40, %42
  store float %43, float* %1, align 4
  %44 = getelementptr inbounds [300 x i32], [300 x i32]* %8, i64 0, i64 0
  %45 = load i32, i32* %44, align 16
  %46 = sitofp i32 %45 to float
  %47 = load float, float* %1, align 4
  %48 = fsub float %46, %47
  %49 = call float @absd(float %48)
  store float %49, float* %2, align 4
  %50 = getelementptr inbounds [300 x i32], [300 x i32]* %8, i64 0, i64 0
  %51 = load i32, i32* %50, align 16
  store i32 %51, i32* %6, align 4
  store i32 0, i32* %5, align 4
  store i32 1, i32* %7, align 4
  br label %52

52:                                               ; preds = %98, %39
  %53 = load i32, i32* %7, align 4
  %54 = load i32, i32* %4, align 4
  %55 = icmp slt i32 %53, %54
  br i1 %55, label %56, label %101

56:                                               ; preds = %52
  %57 = load float, float* %1, align 4
  %58 = load i32, i32* %7, align 4
  %59 = sext i32 %58 to i64
  %60 = getelementptr inbounds [300 x i32], [300 x i32]* %8, i64 0, i64 %59
  %61 = load i32, i32* %60, align 4
  %62 = sitofp i32 %61 to float
  %63 = fsub float %57, %62
  %64 = call float @absd(float %63)
  %65 = load float, float* %2, align 4
  %66 = fcmp ogt float %64, %65
  br i1 %66, label %67, label %80

67:                                               ; preds = %56
  %68 = load float, float* %1, align 4
  %69 = load i32, i32* %7, align 4
  %70 = sext i32 %69 to i64
  %71 = getelementptr inbounds [300 x i32], [300 x i32]* %8, i64 0, i64 %70
  %72 = load i32, i32* %71, align 4
  %73 = sitofp i32 %72 to float
  %74 = fsub float %68, %73
  %75 = call float @absd(float %74)
  store float %75, float* %2, align 4
  %76 = load i32, i32* %7, align 4
  %77 = sext i32 %76 to i64
  %78 = getelementptr inbounds [300 x i32], [300 x i32]* %8, i64 0, i64 %77
  %79 = load i32, i32* %78, align 4
  store i32 %79, i32* %6, align 4
  br label %97

80:                                               ; preds = %56
  %81 = load float, float* %1, align 4
  %82 = load i32, i32* %7, align 4
  %83 = sext i32 %82 to i64
  %84 = getelementptr inbounds [300 x i32], [300 x i32]* %8, i64 0, i64 %83
  %85 = load i32, i32* %84, align 4
  %86 = sitofp i32 %85 to float
  %87 = fsub float %81, %86
  %88 = call float @absd(float %87)
  %89 = load float, float* %2, align 4
  %90 = fcmp oeq float %88, %89
  br i1 %90, label %91, label %96

91:                                               ; preds = %80
  %92 = load i32, i32* %7, align 4
  %93 = sext i32 %92 to i64
  %94 = getelementptr inbounds [300 x i32], [300 x i32]* %8, i64 0, i64 %93
  %95 = load i32, i32* %94, align 4
  store i32 %95, i32* %5, align 4
  br label %96

96:                                               ; preds = %91, %80
  br label %97

97:                                               ; preds = %96, %67
  br label %98

98:                                               ; preds = %97
  %99 = load i32, i32* %7, align 4
  %100 = add nsw i32 %99, 1
  store i32 %100, i32* %7, align 4
  br label %52

101:                                              ; preds = %52
  %102 = load i32, i32* %5, align 4
  %103 = icmp eq i32 %102, 0
  br i1 %103, label %104, label %107

104:                                              ; preds = %101
  %105 = load i32, i32* %6, align 4
  %106 = call i32 (i8*, ...) @printf(i8* getelementptr inbounds ([3 x i8], [3 x i8]* @.str, i64 0, i64 0), i32 %105)
  br label %120

107:                                              ; preds = %101
  %108 = load i32, i32* %6, align 4
  %109 = load i32, i32* %5, align 4
  %110 = icmp sgt i32 %108, %109
  br i1 %110, label %111, label %115

111:                                              ; preds = %107
  %112 = load i32, i32* %5, align 4
  %113 = load i32, i32* %6, align 4
  %114 = call i32 (i8*, ...) @printf(i8* getelementptr inbounds ([6 x i8], [6 x i8]* @.str.1, i64 0, i64 0), i32 %112, i32 %113)
  br label %119

115:                                              ; preds = %107
  %116 = load i32, i32* %6, align 4
  %117 = load i32, i32* %5, align 4
  %118 = call i32 (i8*, ...) @printf(i8* getelementptr inbounds ([6 x i8], [6 x i8]* @.str.1, i64 0, i64 0), i32 %116, i32 %117)
  br label %119

119:                                              ; preds = %115, %111
  br label %120

120:                                              ; preds = %119, %104
  ret void
}

; Function Attrs: argmemonly nounwind willreturn
declare void @llvm.memset.p0i8.i64(i8* nocapture writeonly, i8, i64, i1 immarg) #1

declare dso_local i32 @__isoc99_scanf(i8*, ...) #2

declare dso_local i32 @printf(i8*, ...) #2


!llvm.module.flags = !{!0}
!llvm.ident = !{!1}

!0 = !{i32 1, !"wchar_size", i32 4}
!1 = !{!"clang version 10.0.0-4ubuntu1 "}
